target datalayout = "e-m:e-p270:32:32-p271:32:32-p272:64:64-i64:64-i128:128-f80:128-n8:16:32:64-S128"
target triple = "x86_64-pc-linux-gnu"

; Function Attrs: nounwind uwtable
define dso_local i32 @_hash_get_newbucket_from_oldbucket(ptr noundef %0, i32 noundef %1, i32 noundef %2, i32 noundef %3) #0 {
  %5 = alloca ptr, align 8
  %6 = alloca i32, align 4
  %7 = alloca i32, align 4
  %8 = alloca i32, align 4
  %9 = alloca i32, align 4
  store ptr %0, ptr %5, align 8
  store i32 %1, ptr %6, align 4
  store i32 %2, ptr %7, align 4
  store i32 %3, ptr %8, align 4
  call void @llvm.lifetime.start.p0(i64 4, ptr %9) #6
  %10 = load i32, ptr %6, align 4
  %11 = load i32, ptr %7, align 4
  %12 = add i32 %11, 1
  %13 = or i32 %10, %12
  store i32 %13, ptr %9, align 4
  %14 = load i32, ptr %9, align 4
  %15 = load i32, ptr %8, align 4
  %16 = icmp ugt i32 %14, %15
  br i1 %16, label %17, label %24

17:                                               ; preds = %4
  %18 = load i32, ptr %7, align 4
  %19 = lshr i32 %18, 1
  store i32 %19, ptr %7, align 4
  %20 = load i32, ptr %6, align 4
  %21 = load i32, ptr %7, align 4
  %22 = add i32 %21, 1
  %23 = or i32 %20, %22
  store i32 %23, ptr %9, align 4
  br label %24

24:                                               ; preds = %17, %4
  %25 = load i32, ptr %9, align 4
  call void @llvm.lifetime.end.p0(i64 4, ptr %9) #6
  ret i32 %25
}