; Function Attrs: mustprogress nofree norecurse nosync nounwind willreturn memory(none) uwtable
define dso_local i32 @_hash_get_newbucket_from_oldbucket(ptr noundef readnone captures(none) %0, i32 noundef %1, i32 noundef %2, i32 noundef %3) local_unnamed_addr #0 {
  %5 = add i32 %2, 1
  %6 = or i32 %5, %1
  %7 = icmp ugt i32 %6, %3
  %8 = lshr i32 %2, 1
  %9 = add nuw i32 %8, 1
  %10 = or i32 %9, %1
  %.0 = select i1 %7, i32 %10, i32 %6
  ret i32 %.0
}